target datalayout = "e-m:e-p270:32:32-p271:32:32-p272:64:64-i64:64-i128:128-f80:128-n8:16:32:64-S128"
target triple = "x86_64-pc-linux-gnu"

%struct.SurfaceDataRasInfo = type { %struct.SurfaceDataBounds, ptr, i32, i32, i32, i32, ptr, ptr, ptr, ptr, ptr, ptr, i32, %union.anon.0 }
%struct.SurfaceDataBounds = type { i32, i32, i32, i32 }
%union.anon.0 = type { ptr, [56 x i8] }

; Function Attrs: nounwind uwtable
define hidden void @Index8GrayToIndex12GrayScaleConvert(ptr noundef %0, ptr noundef %1, i32 noundef %2, i32 noundef %3, i32 noundef %4, i32 noundef %5, i32 noundef %6, i32 noundef %7, i32 noundef %8, ptr noundef %9, ptr noundef %10, ptr noundef %11, ptr noundef %12) #0 {
  %14 = alloca ptr, align 8
  %15 = alloca ptr, align 8
  %16 = alloca i32, align 4
  %17 = alloca i32, align 4
  %18 = alloca i32, align 4
  %19 = alloca i32, align 4
  %20 = alloca i32, align 4
  %21 = alloca i32, align 4
  %22 = alloca i32, align 4
  %23 = alloca ptr, align 8
  %24 = alloca ptr, align 8
  %25 = alloca ptr, align 8
  %26 = alloca ptr, align 8
  %27 = alloca ptr, align 8
  %28 = alloca [256 x i16], align 16
  %29 = alloca ptr, align 8
  %30 = alloca i32, align 4
  %31 = alloca ptr, align 8
  %32 = alloca ptr, align 8
  %33 = alloca i32, align 4
  %34 = alloca i32, align 4
  %35 = alloca i32, align 4
  %36 = alloca i32, align 4
  %37 = alloca i32, align 4
  %38 = alloca i32, align 4
  %39 = alloca i32, align 4
  %40 = alloca i32, align 4
  %41 = alloca i32, align 4
  %42 = alloca i32, align 4
  %43 = alloca ptr, align 8
  %44 = alloca ptr, align 8
  %45 = alloca i32, align 4
  %46 = alloca i32, align 4
  %47 = alloca i32, align 4
  %48 = alloca i32, align 4
  %49 = alloca i32, align 4
  store ptr %0, ptr %14, align 8
  store ptr %1, ptr %15, align 8
  store i32 %2, ptr %16, align 4
  store i32 %3, ptr %17, align 4
  store i32 %4, ptr %18, align 4
  store i32 %5, ptr %19, align 4
  store i32 %6, ptr %20, align 4
  store i32 %7, ptr %21, align 4
  store i32 %8, ptr %22, align 4
  store ptr %9, ptr %23, align 8
  store ptr %10, ptr %24, align 8
  store ptr %11, ptr %25, align 8
  store ptr %12, ptr %26, align 8
  br label %50

50:                                               ; preds = %13
  %51 = load ptr, ptr %23, align 8
  %52 = getelementptr inbounds %struct.SurfaceDataRasInfo, ptr %51, i32 0, i32 6
  %53 = load ptr, ptr %52, align 8
  store ptr %53, ptr %29, align 8
  %54 = load ptr, ptr %23, align 8
  %55 = getelementptr inbounds %struct.SurfaceDataRasInfo, ptr %54, i32 0, i32 5
  %56 = load i32, ptr %55, align 4
  store i32 %56, ptr %30, align 4
  %57 = load ptr, ptr %24, align 8
  %58 = getelementptr inbounds %struct.SurfaceDataRasInfo, ptr %57, i32 0, i32 11
  %59 = load ptr, ptr %58, align 8
  store ptr %59, ptr %31, align 8
  %60 = load i32, ptr %30, align 4
  %61 = icmp uge i32 %60, 256
  br i1 %61, label %62, label %63

62:                                               ; preds = %50
  store i32 256, ptr %30, align 4
  br label %100

63:                                               ; preds = %50
  %64 = load i32, ptr %30, align 4
  %65 = zext i32 %64 to i64
  %66 = getelementptr inbounds [256 x i16], ptr %28, i64 0, i64 %65
  store ptr %66, ptr %32, align 8
  br label %67

67:                                               ; preds = %94, %63
  br label %68

68:                                               ; preds = %67
  br label %69

69:                                               ; preds = %68
  store i32 0, ptr %35, align 4
  store i32 0, ptr %34, align 4
  store i32 0, ptr %33, align 4
  br label %70

70:                                               ; preds = %69
  br label %71

71:                                               ; preds = %70
  %72 = load i32, ptr %33, align 4
  %73 = mul nsw i32 77, %72
  %74 = load i32, ptr %34, align 4
  %75 = mul nsw i32 150, %74
  %76 = add nsw i32 %73, %75
  %77 = load i32, ptr %35, align 4
  %78 = mul nsw i32 29, %77
  %79 = add nsw i32 %76, %78
  %80 = add nsw i32 %79, 128
  %81 = sdiv i32 %80, 256
  %82 = trunc i32 %81 to i8
  %83 = zext i8 %82 to i32
  store i32 %83, ptr %36, align 4
  %84 = load ptr, ptr %31, align 8
  %85 = load i32, ptr %36, align 4
  %86 = sext i32 %85 to i64
  %87 = getelementptr inbounds i32, ptr %84, i64 %86
  %88 = load i32, ptr %87, align 4
  %89 = trunc i32 %88 to i16
  %90 = load ptr, ptr %32, align 8
  %91 = getelementptr inbounds i16, ptr %90, i64 0
  store i16 %89, ptr %91, align 2
  br label %92

92:                                               ; preds = %71
  br label %93

93:                                               ; preds = %92
  br label %94

94:                                               ; preds = %93
  %95 = load ptr, ptr %32, align 8
  %96 = getelementptr inbounds i16, ptr %95, i32 1
  store ptr %96, ptr %32, align 8
  %97 = getelementptr inbounds [256 x i16], ptr %28, i64 0, i64 256
  %98 = icmp ult ptr %96, %97
  br i1 %98, label %67, label %99, !llvm.loop !34

99:                                               ; preds = %94
  br label %100

100:                                              ; preds = %99, %62
  br label %101

101:                                              ; preds = %100
  store i32 0, ptr %37, align 4
  br label %102

102:                                              ; preds = %145, %101
  br label %103

103:                                              ; preds = %102
  %104 = load ptr, ptr %29, align 8
  %105 = load i32, ptr %37, align 4
  %106 = zext i32 %105 to i64
  %107 = getelementptr inbounds i32, ptr %104, i64 %106
  %108 = load i32, ptr %107, align 4
  store i32 %108, ptr %38, align 4
  br label %109

109:                                              ; preds = %103
  br label %110

110:                                              ; preds = %109
  %111 = load i32, ptr %38, align 4
  %112 = and i32 %111, 255
  store i32 %112, ptr %41, align 4
  %113 = load i32, ptr %38, align 4
  %114 = ashr i32 %113, 8
  %115 = and i32 %114, 255
  store i32 %115, ptr %40, align 4
  %116 = load i32, ptr %38, align 4
  %117 = ashr i32 %116, 16
  %118 = and i32 %117, 255
  store i32 %118, ptr %39, align 4
  br label %119

119:                                              ; preds = %110
  br label %120

120:                                              ; preds = %119
  %121 = load i32, ptr %39, align 4
  %122 = mul nsw i32 77, %121
  %123 = load i32, ptr %40, align 4
  %124 = mul nsw i32 150, %123
  %125 = add nsw i32 %122, %124
  %126 = load i32, ptr %41, align 4
  %127 = mul nsw i32 29, %126
  %128 = add nsw i32 %125, %127
  %129 = add nsw i32 %128, 128
  %130 = sdiv i32 %129, 256
  %131 = trunc i32 %130 to i8
  %132 = zext i8 %131 to i32
  store i32 %132, ptr %42, align 4
  %133 = load ptr, ptr %31, align 8
  %134 = load i32, ptr %42, align 4
  %135 = sext i32 %134 to i64
  %136 = getelementptr inbounds i32, ptr %133, i64 %135
  %137 = load i32, ptr %136, align 4
  %138 = trunc i32 %137 to i16
  %139 = load i32, ptr %37, align 4
  %140 = zext i32 %139 to i64
  %141 = getelementptr inbounds [256 x i16], ptr %28, i64 0, i64 %140
  store i16 %138, ptr %141, align 2
  br label %142

142:                                              ; preds = %120
  br label %143

143:                                              ; preds = %142
  br label %144

144:                                              ; preds = %143
  br label %145

145:                                              ; preds = %144
  %146 = load i32, ptr %37, align 4
  %147 = add i32 %146, 1
  store i32 %147, ptr %37, align 4
  %148 = load i32, ptr %30, align 4
  %149 = icmp ult i32 %147, %148
  br i1 %149, label %102, label %150, !llvm.loop !35

150:                                              ; preds = %145
  br label %151

151:                                              ; preds = %150
  br label %152

152:                                              ; preds = %151
  br label %153

153:                                              ; preds = %152
  %154 = load ptr, ptr %15, align 8
  store ptr %154, ptr %44, align 8
  %155 = load ptr, ptr %23, align 8
  %156 = getelementptr inbounds %struct.SurfaceDataRasInfo, ptr %155, i32 0, i32 4
  %157 = load i32, ptr %156, align 8
  store i32 %157, ptr %45, align 4
  %158 = load ptr, ptr %24, align 8
  %159 = getelementptr inbounds %struct.SurfaceDataRasInfo, ptr %158, i32 0, i32 4
  %160 = load i32, ptr %159, align 8
  store i32 %160, ptr %46, align 4
  %161 = load ptr, ptr %24, align 8
  %162 = getelementptr inbounds %struct.SurfaceDataRasInfo, ptr %161, i32 0, i32 11
  %163 = load ptr, ptr %162, align 8
  store ptr %163, ptr %27, align 8
  %164 = load i32, ptr %16, align 4
  %165 = mul i32 %164, 2
  %166 = load i32, ptr %46, align 4
  %167 = sub i32 %166, %165
  store i32 %167, ptr %46, align 4
  br label %168

168:                                              ; preds = %217, %153
  %169 = load i32, ptr %16, align 4
  store i32 %169, ptr %47, align 4
  %170 = load i32, ptr %18, align 4
  store i32 %170, ptr %48, align 4
  %171 = load ptr, ptr %14, align 8
  %172 = ptrtoint ptr %171 to i64
  %173 = load i32, ptr %19, align 4
  %174 = load i32, ptr %22, align 4
  %175 = ashr i32 %173, %174
  %176 = sext i32 %175 to i64
  %177 = load i32, ptr %45, align 4
  %178 = sext i32 %177 to i64
  %179 = mul nsw i64 %176, %178
  %180 = add nsw i64 %172, %179
  %181 = inttoptr i64 %180 to ptr
  store ptr %181, ptr %43, align 8
  br label %182

182:                                              ; preds = %203, %168
  %183 = load i32, ptr %48, align 4
  %184 = load i32, ptr %22, align 4
  %185 = ashr i32 %183, %184
  store i32 %185, ptr %49, align 4
  %186 = load ptr, ptr %43, align 8
  %187 = load i32, ptr %49, align 4
  %188 = sext i32 %187 to i64
  %189 = getelementptr inbounds i8, ptr %186, i64 %188
  %190 = load i8, ptr %189, align 1
  %191 = zext i8 %190 to i64
  %192 = getelementptr inbounds [256 x i16], ptr %28, i64 0, i64 %191
  %193 = load i16, ptr %192, align 2
  %194 = load ptr, ptr %44, align 8
  %195 = getelementptr inbounds i16, ptr %194, i64 0
  store i16 %193, ptr %195, align 2
  %196 = load ptr, ptr %44, align 8
  %197 = ptrtoint ptr %196 to i64
  %198 = add nsw i64 %197, 2
  %199 = inttoptr i64 %198 to ptr
  store ptr %199, ptr %44, align 8
  %200 = load i32, ptr %20, align 4
  %201 = load i32, ptr %48, align 4
  %202 = add nsw i32 %201, %200
  store i32 %202, ptr %48, align 4
  br label %203

203:                                              ; preds = %182
  %204 = load i32, ptr %47, align 4
  %205 = add i32 %204, -1
  store i32 %205, ptr %47, align 4
  %206 = icmp ugt i32 %205, 0
  br i1 %206, label %182, label %207, !llvm.loop !36

207:                                              ; preds = %203
  %208 = load ptr, ptr %44, align 8
  %209 = ptrtoint ptr %208 to i64
  %210 = load i32, ptr %46, align 4
  %211 = sext i32 %210 to i64
  %212 = add nsw i64 %209, %211
  %213 = inttoptr i64 %212 to ptr
  store ptr %213, ptr %44, align 8
  %214 = load i32, ptr %21, align 4
  %215 = load i32, ptr %19, align 4
  %216 = add nsw i32 %215, %214
  store i32 %216, ptr %19, align 4
  br label %217

217:                                              ; preds = %207
  %218 = load i32, ptr %17, align 4
  %219 = add i32 %218, -1
  store i32 %219, ptr %17, align 4
  %220 = icmp ugt i32 %219, 0
  br i1 %220, label %168, label %221, !llvm.loop !37

221:                                              ; preds = %217
  br label %222

222:                                              ; preds = %221
  ret void
}