; Function Attrs: nofree norecurse nosync nounwind memory(readwrite, inaccessiblemem: none) uwtable
define hidden void @Index8GrayToIndex12GrayScaleConvert(ptr noundef %0, ptr noundef %1, i32 noundef %2, i32 noundef %3, i32 noundef %4, i32 noundef %5, i32 noundef %6, i32 noundef %7, i32 noundef %8, ptr nocapture noundef readonly %9, ptr nocapture noundef readonly %10, ptr nocapture readnone %11, ptr nocapture readnone %12) #0 {
  %14 = alloca [256 x i16], align 16
  %15 = getelementptr inbounds i8, ptr %9, i64 40
  %16 = load ptr, ptr %15, align 8
  %17 = getelementptr inbounds i8, ptr %9, i64 36
  %18 = load i32, ptr %17, align 4
  %19 = getelementptr inbounds i8, ptr %10, i64 80
  %20 = load ptr, ptr %19, align 8
  %21 = icmp ugt i32 %18, 255
  br i1 %21, label %.loopexit, label %22

22:                                               ; preds = %13
  %23 = shl nuw nsw i32 %18, 1
  %.idx = zext nneg i32 %23 to i64
  %24 = load i32, ptr %20, align 4
  %25 = trunc i32 %24 to i16
  br label %26

26:                                               ; preds = %26, %22
  %.055.idx = phi i64 [ %.idx, %22 ], [ %.055.add, %26 ]
  %.055.ptr = getelementptr inbounds i8, ptr %14, i64 %.055.idx
  store i16 %25, ptr %.055.ptr, align 2
  %.055.add = add nuw nsw i64 %.055.idx, 2
  %27 = icmp ult i64 %.055.idx, 510
  br i1 %27, label %26, label %.loopexit, !llvm.loop !34

.loopexit:                                        ; preds = %26, %13
  %.054 = phi i32 [ 256, %13 ], [ %18, %26 ]
  %umax = tail call i32 @llvm.umax.i32(i32 %.054, i32 1)
  %wide.trip.count = zext nneg i32 %umax to i64
  br label %28

28:                                               ; preds = %28, %.loopexit
  %indvars.iv = phi i64 [ %indvars.iv.next, %28 ], [ 0, %.loopexit ]
  %29 = getelementptr inbounds i32, ptr %16, i64 %indvars.iv
  %30 = load i32, ptr %29, align 4
  %31 = and i32 %30, 255
  %32 = lshr i32 %30, 8
  %33 = and i32 %32, 255
  %34 = lshr i32 %30, 16
  %35 = and i32 %34, 255
  %36 = mul nuw nsw i32 %35, 77
  %37 = mul nuw nsw i32 %33, 150
  %38 = mul nuw nsw i32 %31, 29
  %39 = add nuw nsw i32 %38, 128
  %40 = add nuw nsw i32 %39, %37
  %41 = add nuw nsw i32 %40, %36
  %42 = lshr i32 %41, 8
  %43 = zext nneg i32 %42 to i64
  %44 = getelementptr inbounds i32, ptr %20, i64 %43
  %45 = load i32, ptr %44, align 4
  %46 = trunc i32 %45 to i16
  %47 = getelementptr inbounds [256 x i16], ptr %14, i64 0, i64 %indvars.iv
  store i16 %46, ptr %47, align 2
  %indvars.iv.next = add nuw nsw i64 %indvars.iv, 1
  %exitcond.not = icmp eq i64 %indvars.iv.next, %wide.trip.count
  br i1 %exitcond.not, label %48, label %28, !llvm.loop !35

48:                                               ; preds = %28
  %49 = getelementptr inbounds i8, ptr %9, i64 32
  %50 = load i32, ptr %49, align 8
  %51 = getelementptr inbounds i8, ptr %10, i64 32
  %52 = load i32, ptr %51, align 8
  %53 = shl i32 %2, 1
  %54 = sub i32 %52, %53
  %55 = sext i32 %54 to i64
  %56 = ptrtoint ptr %0 to i64
  %57 = sext i32 %50 to i64
  br label %58

58:                                               ; preds = %77, %48
  %.053 = phi ptr [ %1, %48 ], [ %79, %77 ]
  %.052 = phi i32 [ %5, %48 ], [ %80, %77 ]
  %.0 = phi i32 [ %3, %48 ], [ %81, %77 ]
  %59 = ashr i32 %.052, %8
  %60 = sext i32 %59 to i64
  %61 = mul nsw i64 %60, %57
  %62 = add nsw i64 %61, %56
  %63 = inttoptr i64 %62 to ptr
  br label %64

64:                                               ; preds = %64, %58
  %.1 = phi ptr [ %.053, %58 ], [ %74, %64 ]
  %.051 = phi i32 [ %2, %58 ], [ %76, %64 ]
  %.050 = phi i32 [ %4, %58 ], [ %75, %64 ]
  %65 = ashr i32 %.050, %8
  %66 = sext i32 %65 to i64
  %67 = getelementptr inbounds i8, ptr %63, i64 %66
  %68 = load i8, ptr %67, align 1
  %69 = zext i8 %68 to i64
  %70 = getelementptr inbounds [256 x i16], ptr %14, i64 0, i64 %69
  %71 = load i16, ptr %70, align 2
  store i16 %71, ptr %.1, align 2
  %72 = ptrtoint ptr %.1 to i64
  %73 = add nsw i64 %72, 2
  %74 = inttoptr i64 %73 to ptr
  %75 = add nsw i32 %.050, %6
  %76 = add i32 %.051, -1
  %.not = icmp eq i32 %76, 0
  br i1 %.not, label %77, label %64, !llvm.loop !36

77:                                               ; preds = %64
  %78 = add nsw i64 %73, %55
  %79 = inttoptr i64 %78 to ptr
  %80 = add nsw i32 %.052, %7
  %81 = add i32 %.0, -1
  %.not60 = icmp eq i32 %81, 0
  br i1 %.not60, label %82, label %58, !llvm.loop !37

82:                                               ; preds = %77
  ret void
}